target datalayout = "e-m:e-p270:32:32-p271:32:32-p272:64:64-i64:64-i128:128-f80:128-n8:16:32:64-S128"
target triple = "x86_64-pc-linux-gnu"

%"class.std::__cxx11::basic_string" = type { %"struct.std::__cxx11::basic_string<char>::_Alloc_hider", i64, %union.anon }
%"struct.std::__cxx11::basic_string<char>::_Alloc_hider" = type { ptr }
%union.anon = type { i64, [8 x i8] }
%"class.std::filesystem::__cxx11::path" = type { %"class.std::__cxx11::basic_string", %"struct.std::filesystem::__cxx11::path::_List" }
%"struct.std::filesystem::__cxx11::path::_List" = type { %"class.std::unique_ptr" }
%"class.std::unique_ptr" = type { %"struct.std::__uniq_ptr_data" }
%"struct.std::__uniq_ptr_data" = type { %"class.std::__uniq_ptr_impl" }
%"class.std::__uniq_ptr_impl" = type { %"class.std::tuple" }
%"class.std::tuple" = type { %"struct.std::_Tuple_impl" }
%"struct.std::_Tuple_impl" = type { %"struct.std::_Head_base.24" }
%"struct.std::_Head_base.24" = type { ptr }
%struct.stat = type { i64, i64, i64, i32, i32, i32, i32, i64, i64, i64, i64, %struct.timespec, %struct.timespec, %struct.timespec, [3 x i64] }
%struct.timespec = type { i64, i64 }
%struct.timeval = type { i64, i64 }

@_ZTIN3nix8SysErrorE = linkonce_odr constant { ptr, ptr, ptr } { ptr getelementptr inbounds (ptr, ptr @_ZTVN10__cxxabiv120__si_class_type_infoE, i64 2), ptr @_ZTSN3nix8SysErrorE, ptr @_ZTIN3nix11SystemErrorE }, comdat, align 8
@.str.27 = private unnamed_addr constant [35 x i8] c"changing modification time of '%s'\00", align 1

; Function Attrs: mustprogress nounwind uwtable
define linkonce_odr noundef ptr @_ZNKSt7__cxx1112basic_stringIcSt11char_traitsIcESaIcEE7_M_dataEv(ptr noundef nonnull align 8 dereferenceable(32) %0) #2 comdat align 2 {
  %2 = alloca ptr, align 8
  store ptr %0, ptr %2, align 8
  %3 = load ptr, ptr %2, align 8
  %4 = getelementptr inbounds %"class.std::__cxx11::basic_string", ptr %3, i32 0, i32 0
  %5 = getelementptr inbounds %"struct.std::__cxx11::basic_string<char>::_Alloc_hider", ptr %4, i32 0, i32 0
  %6 = load ptr, ptr %5, align 8
  ret ptr %6
}

; Function Attrs: mustprogress nounwind uwtable
define linkonce_odr noundef ptr @_ZNKSt7__cxx1112basic_stringIcSt11char_traitsIcESaIcEE5c_strEv(ptr noundef nonnull align 8 dereferenceable(32) %0) #2 comdat align 2 {
  %2 = alloca ptr, align 8
  store ptr %0, ptr %2, align 8
  %3 = load ptr, ptr %2, align 8
  %4 = call noundef ptr @_ZNKSt7__cxx1112basic_stringIcSt11char_traitsIcESaIcEE7_M_dataEv(ptr noundef nonnull align 8 dereferenceable(32) %3)
  ret ptr %4
}

; Function Attrs: mustprogress nounwind uwtable
define linkonce_odr noundef ptr @_ZNKSt10filesystem7__cxx114path5c_strEv(ptr noundef nonnull align 8 dereferenceable(40) %0) #2 comdat align 2 {
  %2 = alloca ptr, align 8
  store ptr %0, ptr %2, align 8
  %3 = load ptr, ptr %2, align 8
  %4 = getelementptr inbounds %"class.std::filesystem::__cxx11::path", ptr %3, i32 0, i32 0
  %5 = call noundef ptr @_ZNKSt7__cxx1112basic_stringIcSt11char_traitsIcESaIcEE5c_strEv(ptr noundef nonnull align 8 dereferenceable(32) %4) #1
  ret ptr %5
}

; Function Attrs: mustprogress uwtable
define void @_ZN3nix12setWriteTimeERKNSt10filesystem7__cxx114pathERK4stat(ptr noundef nonnull align 8 dereferenceable(40) %0, ptr noundef nonnull align 8 dereferenceable(144) %1) #3 personality ptr @__gxx_personality_v0 {
  %3 = alloca ptr, align 8
  %4 = alloca ptr, align 8
  %5 = alloca [2 x %struct.timeval], align 16
  %6 = alloca %struct.timeval, align 8
  %7 = alloca %struct.timeval, align 8
  %8 = alloca ptr, align 8
  %9 = alloca i32, align 4
  store ptr %0, ptr %3, align 8
  store ptr %1, ptr %4, align 8
  %10 = getelementptr inbounds %struct.timeval, ptr %6, i32 0, i32 0
  %11 = load ptr, ptr %4, align 8
  %12 = getelementptr inbounds %struct.stat, ptr %11, i32 0, i32 11
  %13 = getelementptr inbounds %struct.timespec, ptr %12, i32 0, i32 0
  %14 = load i64, ptr %13, align 8
  store i64 %14, ptr %10, align 8
  %15 = getelementptr inbounds %struct.timeval, ptr %6, i32 0, i32 1
  store i64 0, ptr %15, align 8
  %16 = getelementptr inbounds [2 x %struct.timeval], ptr %5, i64 0, i64 0
  call void @llvm.memcpy.p0.p0.i64(ptr align 16 %16, ptr align 8 %6, i64 16, i1 false)
  %17 = getelementptr inbounds %struct.timeval, ptr %7, i32 0, i32 0
  %18 = load ptr, ptr %4, align 8
  %19 = getelementptr inbounds %struct.stat, ptr %18, i32 0, i32 12
  %20 = getelementptr inbounds %struct.timespec, ptr %19, i32 0, i32 0
  %21 = load i64, ptr %20, align 8
  store i64 %21, ptr %17, align 8
  %22 = getelementptr inbounds %struct.timeval, ptr %7, i32 0, i32 1
  store i64 0, ptr %22, align 8
  %23 = getelementptr inbounds [2 x %struct.timeval], ptr %5, i64 0, i64 1
  call void @llvm.memcpy.p0.p0.i64(ptr align 16 %23, ptr align 8 %7, i64 16, i1 false)
  %24 = load ptr, ptr %3, align 8
  %25 = call noundef ptr @_ZNKSt10filesystem7__cxx114path5c_strEv(ptr noundef nonnull align 8 dereferenceable(40) %24) #1
  %26 = getelementptr inbounds [2 x %struct.timeval], ptr %5, i64 0, i64 0
  %27 = call i32 @lutimes(ptr noundef %25, ptr noundef %26) #1
  %28 = icmp ne i32 %27, 0
  br i1 %28, label %29, label %37

29:                                               ; preds = %2
  %30 = call ptr @__cxa_allocate_exception(i64 384) #1
  %31 = load ptr, ptr %3, align 8
  invoke void @_ZN3nix8SysErrorC2IJA35_cNSt10filesystem7__cxx114pathEEEEDpRKT_(ptr noundef nonnull align 8 dereferenceable(380) %30, ptr noundef nonnull align 1 dereferenceable(35) @.str.27, ptr noundef nonnull align 8 dereferenceable(40) %31)
          to label %32 unwind label %33

32:                                               ; preds = %29
  call void @__cxa_throw(ptr %30, ptr @_ZTIN3nix8SysErrorE, ptr @_ZN3nix8SysErrorD2Ev) #20
  unreachable

33:                                               ; preds = %29
  %34 = landingpad { ptr, i32 }
          cleanup
  %35 = extractvalue { ptr, i32 } %34, 0
  store ptr %35, ptr %8, align 8
  %36 = extractvalue { ptr, i32 } %34, 1
  store i32 %36, ptr %9, align 4
  call void @__cxa_free_exception(ptr %30) #1
  br label %38

37:                                               ; preds = %2
  ret void

38:                                               ; preds = %33
  %39 = load ptr, ptr %8, align 8
  %40 = load i32, ptr %9, align 4
  %41 = insertvalue { ptr, i32 } poison, ptr %39, 0
  %42 = insertvalue { ptr, i32 } %41, i32 %40, 1
  resume { ptr, i32 } %42
}