; Function Attrs: mustprogress uwtable
define void @_ZN3nix12setWriteTimeERKNSt10filesystem7__cxx114pathERK4stat(ptr noundef nonnull align 8 dereferenceable(40) %0, ptr nocapture noundef nonnull readonly align 8 dereferenceable(144) %1) local_unnamed_addr #2 personality ptr @__gxx_personality_v0 {
  %3 = alloca [2 x %struct.timeval], align 16
  %4 = getelementptr inbounds i8, ptr %1, i64 72
  %5 = load i64, ptr %4, align 8
  store i64 %5, ptr %3, align 16
  %.sroa.22.0..sroa_idx = getelementptr inbounds i8, ptr %3, i64 8
  store i64 0, ptr %.sroa.22.0..sroa_idx, align 8
  %6 = getelementptr inbounds i8, ptr %1, i64 88
  %7 = load i64, ptr %6, align 8
  %8 = getelementptr inbounds i8, ptr %3, i64 16
  store i64 %7, ptr %8, align 16
  %.sroa.2.0..sroa_idx = getelementptr inbounds i8, ptr %3, i64 24
  store i64 0, ptr %.sroa.2.0..sroa_idx, align 8
  %9 = load ptr, ptr %0, align 8
  %10 = call i32 @lutimes(ptr noundef %9, ptr noundef nonnull %3) #29
  %.not = icmp eq i32 %10, 0
  br i1 %.not, label %16, label %11

11:                                               ; preds = %2
  %12 = call ptr @__cxa_allocate_exception(i64 384) #29
  invoke void @_ZN3nix8SysErrorC2IJA35_cNSt10filesystem7__cxx114pathEEEEDpRKT_(ptr noundef nonnull align 8 dereferenceable(380) %12, ptr noundef nonnull align 1 dereferenceable(35) @.str.27, ptr noundef nonnull align 8 dereferenceable(40) %0)
          to label %13 unwind label %14

13:                                               ; preds = %11
  call void @__cxa_throw(ptr nonnull %12, ptr nonnull @_ZTIN3nix8SysErrorE, ptr nonnull @_ZN3nix8SysErrorD2Ev) #32
  unreachable

14:                                               ; preds = %11
  %15 = landingpad { ptr, i32 }
          cleanup
  call void @__cxa_free_exception(ptr %12) #29
  resume { ptr, i32 } %15

16:                                               ; preds = %2
  ret void
}